target datalayout = "e-m:e-p270:32:32-p271:32:32-p272:64:64-i64:64-i128:128-f80:128-n8:16:32:64-S128"
target triple = "x86_64-pc-linux-gnu"

; Function Attrs: nounwind uwtable
define internal i32 @LZ4_isAligned(ptr noundef %0, i64 noundef %1) #0 {
  %3 = alloca ptr, align 8
  %4 = alloca i64, align 8
  store ptr %0, ptr %3, align 8, !tbaa !8
  store i64 %1, ptr %4, align 8, !tbaa !14
  %5 = load ptr, ptr %3, align 8, !tbaa !8
  %6 = ptrtoint ptr %5 to i64
  %7 = load i64, ptr %4, align 8, !tbaa !14
  %8 = sub i64 %7, 1
  %9 = and i64 %6, %8
  %10 = icmp eq i64 %9, 0
  %11 = zext i1 %10 to i32
  ret i32 %11
}

; Function Attrs: nounwind uwtable
define internal i64 @LZ4_stream_t_alignment() #0 {
  ret i64 8
}

; Function Attrs: nounwind uwtable
define dso_local ptr @LZ4_initStream(ptr noundef %0, i64 noundef %1) #0 {
  %3 = alloca ptr, align 8
  %4 = alloca ptr, align 8
  %5 = alloca i64, align 8
  store ptr %0, ptr %4, align 8, !tbaa !8
  store i64 %1, ptr %5, align 8, !tbaa !14
  %6 = load ptr, ptr %4, align 8, !tbaa !8
  %7 = icmp eq ptr %6, null
  br i1 %7, label %8, label %9

8:                                                ; preds = %2
  store ptr null, ptr %3, align 8
  br label %22

9:                                                ; preds = %2
  %10 = load i64, ptr %5, align 8, !tbaa !14
  %11 = icmp ult i64 %10, 16416
  br i1 %11, label %12, label %13

12:                                               ; preds = %9
  store ptr null, ptr %3, align 8
  br label %22

13:                                               ; preds = %9
  %14 = load ptr, ptr %4, align 8, !tbaa !8
  %15 = call i64 @LZ4_stream_t_alignment()
  %16 = call i32 @LZ4_isAligned(ptr noundef %14, i64 noundef %15)
  %17 = icmp ne i32 %16, 0
  br i1 %17, label %19, label %18

18:                                               ; preds = %13
  store ptr null, ptr %3, align 8
  br label %22

19:                                               ; preds = %13
  %20 = load ptr, ptr %4, align 8, !tbaa !8
  call void @llvm.memset.p0.i64(ptr align 1 %20, i8 0, i64 16416, i1 false)
  %21 = load ptr, ptr %4, align 8, !tbaa !8
  store ptr %21, ptr %3, align 8
  br label %22

22:                                               ; preds = %19, %18, %12, %8
  %23 = load ptr, ptr %3, align 8
  ret ptr %23
}

; Function Attrs: nounwind uwtable
define dso_local ptr @LZ4_createStream() #0 {
  %1 = alloca ptr, align 8
  %2 = alloca ptr, align 8
  %3 = alloca i32, align 4
  call void @llvm.lifetime.start.p0(i64 8, ptr %2) #10
  %4 = call noalias ptr @malloc(i64 noundef 16416) #11
  store ptr %4, ptr %2, align 8, !tbaa !25
  %5 = load ptr, ptr %2, align 8, !tbaa !25
  %6 = icmp eq ptr %5, null
  br i1 %6, label %7, label %8

7:                                                ; preds = %0
  store ptr null, ptr %1, align 8
  store i32 1, ptr %3, align 4
  br label %12

8:                                                ; preds = %0
  %9 = load ptr, ptr %2, align 8, !tbaa !25
  %10 = call ptr @LZ4_initStream(ptr noundef %9, i64 noundef 16416)
  %11 = load ptr, ptr %2, align 8, !tbaa !25
  store ptr %11, ptr %1, align 8
  store i32 1, ptr %3, align 4
  br label %12

12:                                               ; preds = %8, %7
  call void @llvm.lifetime.end.p0(i64 8, ptr %2) #10
  %13 = load ptr, ptr %1, align 8
  ret ptr %13
}