; Function Attrs: mustprogress nofree nounwind willreturn memory(write, argmem: none, inaccessiblemem: readwrite) uwtable
define dso_local noundef ptr @LZ4_createStream() local_unnamed_addr #4 {
  %1 = tail call noalias dereferenceable_or_null(16416) ptr @malloc(i64 noundef 16416) #19
  %2 = icmp ne ptr %1, null
  %3 = ptrtoint ptr %1 to i64
  %4 = and i64 %3, 7
  %.not.i = icmp eq i64 %4, 0
  %or.cond = and i1 %2, %.not.i
  br i1 %or.cond, label %5, label %LZ4_initStream.exit

5:                                                ; preds = %0
  tail call void @llvm.memset.p0.i64(ptr noundef nonnull align 1 dereferenceable(16416) %1, i8 0, i64 16416, i1 false)
  br label %LZ4_initStream.exit

LZ4_initStream.exit:                              ; preds = %5, %0
  ret ptr %1
}